target datalayout = "e-m:e-p270:32:32-p271:32:32-p272:64:64-i64:64-i128:128-f80:128-n8:16:32:64-S128"
target triple = "x86_64-pc-linux-gnu"

%struct.Pdr_Set_t_ = type { i64, i32, i32, i32, [0 x i32] }

; Function Attrs: nounwind uwtable
define ptr @Pdr_SetDup(ptr noundef %0) #0 {
  %2 = alloca ptr, align 8
  %3 = alloca ptr, align 8
  %4 = alloca i32, align 4
  store ptr %0, ptr %2, align 8
  %5 = load ptr, ptr %2, align 8
  %6 = getelementptr inbounds %struct.Pdr_Set_t_, ptr %5, i32 0, i32 2
  %7 = load i32, ptr %6, align 4
  %8 = sext i32 %7 to i64
  %9 = mul i64 %8, 4
  %10 = add i64 24, %9
  %11 = mul i64 1, %10
  %12 = call noalias ptr @malloc(i64 noundef %11) #10
  store ptr %12, ptr %3, align 8
  %13 = load ptr, ptr %2, align 8
  %14 = getelementptr inbounds %struct.Pdr_Set_t_, ptr %13, i32 0, i32 3
  %15 = load i32, ptr %14, align 8
  %16 = load ptr, ptr %3, align 8
  %17 = getelementptr inbounds %struct.Pdr_Set_t_, ptr %16, i32 0, i32 3
  store i32 %15, ptr %17, align 8
  %18 = load ptr, ptr %2, align 8
  %19 = getelementptr inbounds %struct.Pdr_Set_t_, ptr %18, i32 0, i32 2
  %20 = load i32, ptr %19, align 4
  %21 = load ptr, ptr %3, align 8
  %22 = getelementptr inbounds %struct.Pdr_Set_t_, ptr %21, i32 0, i32 2
  store i32 %20, ptr %22, align 4
  %23 = load ptr, ptr %3, align 8
  %24 = getelementptr inbounds %struct.Pdr_Set_t_, ptr %23, i32 0, i32 1
  store i32 1, ptr %24, align 8
  %25 = load ptr, ptr %2, align 8
  %26 = getelementptr inbounds %struct.Pdr_Set_t_, ptr %25, i32 0, i32 0
  %27 = load i64, ptr %26, align 8
  %28 = load ptr, ptr %3, align 8
  %29 = getelementptr inbounds %struct.Pdr_Set_t_, ptr %28, i32 0, i32 0
  store i64 %27, ptr %29, align 8
  store i32 0, ptr %4, align 4
  br label %30

30:                                               ; preds = %48, %1
  %31 = load i32, ptr %4, align 4
  %32 = load ptr, ptr %2, align 8
  %33 = getelementptr inbounds %struct.Pdr_Set_t_, ptr %32, i32 0, i32 2
  %34 = load i32, ptr %33, align 4
  %35 = icmp slt i32 %31, %34
  br i1 %35, label %36, label %51

36:                                               ; preds = %30
  %37 = load ptr, ptr %2, align 8
  %38 = getelementptr inbounds %struct.Pdr_Set_t_, ptr %37, i32 0, i32 4
  %39 = load i32, ptr %4, align 4
  %40 = sext i32 %39 to i64
  %41 = getelementptr inbounds [0 x i32], ptr %38, i64 0, i64 %40
  %42 = load i32, ptr %41, align 4
  %43 = load ptr, ptr %3, align 8
  %44 = getelementptr inbounds %struct.Pdr_Set_t_, ptr %43, i32 0, i32 4
  %45 = load i32, ptr %4, align 4
  %46 = sext i32 %45 to i64
  %47 = getelementptr inbounds [0 x i32], ptr %44, i64 0, i64 %46
  store i32 %42, ptr %47, align 4
  br label %48

48:                                               ; preds = %36
  %49 = load i32, ptr %4, align 4
  %50 = add nsw i32 %49, 1
  store i32 %50, ptr %4, align 4
  br label %30, !llvm.loop !12

51:                                               ; preds = %30
  %52 = load ptr, ptr %3, align 8
  ret ptr %52
}