; Function Attrs: mustprogress nofree nounwind willreturn uwtable
define noalias noundef ptr @Pdr_SetDup(ptr noundef readonly captures(none) %0) local_unnamed_addr #5 {
  %2 = getelementptr inbounds nuw i8, ptr %0, i64 12
  %3 = load i32, ptr %2, align 4
  %4 = sext i32 %3 to i64
  %5 = shl nsw i64 %4, 2
  %6 = add nsw i64 %5, 24
  %7 = tail call noalias ptr @malloc(i64 noundef %6) #26
  %8 = getelementptr inbounds nuw i8, ptr %0, i64 16
  %9 = load i32, ptr %8, align 8
  %10 = getelementptr inbounds nuw i8, ptr %7, i64 16
  store i32 %9, ptr %10, align 8
  %11 = getelementptr inbounds nuw i8, ptr %7, i64 12
  store i32 %3, ptr %11, align 4
  %12 = getelementptr inbounds nuw i8, ptr %7, i64 8
  store i32 1, ptr %12, align 8
  %13 = load i64, ptr %0, align 8
  store i64 %13, ptr %7, align 8
  %14 = icmp sgt i32 %3, 0
  br i1 %14, label %.lr.ph, label %._crit_edge

.lr.ph:                                           ; preds = %1
  %15 = getelementptr inbounds nuw i8, ptr %0, i64 20
  %16 = getelementptr inbounds nuw i8, ptr %7, i64 20
  %17 = zext nneg i32 %3 to i64
  %18 = shl nuw nsw i64 %17, 2
  tail call void @llvm.memcpy.p0.p0.i64(ptr nonnull align 4 %16, ptr nonnull align 4 %15, i64 %18, i1 false)
  br label %._crit_edge

._crit_edge:                                      ; preds = %.lr.ph, %1
  ret ptr %7
}